; Function Attrs: nounwind uwtable
define internal void @stringio_dealloc(ptr noundef initializes((64, 65)) %0) #0 {
  %2 = getelementptr i8, ptr %0, i64 8
  %.val = load ptr, ptr %2, align 8, !tbaa !4
  %3 = getelementptr i8, ptr %0, i64 -16
  %4 = getelementptr i8, ptr %0, i64 -8
  %.val.i = load i64, ptr %4, align 8, !tbaa !10
  %5 = and i64 %.val.i, -4
  %6 = inttoptr i64 %5 to ptr
  %.val9.i = load i64, ptr %3, align 8, !tbaa !13
  %7 = and i64 %.val9.i, -4
  %8 = inttoptr i64 %7 to ptr
  %9 = load i64, ptr %6, align 8, !tbaa !13
  %10 = and i64 %9, 3
  %11 = or disjoint i64 %10, %7
  store i64 %11, ptr %6, align 8, !tbaa !13
  %12 = getelementptr inbounds nuw i8, ptr %8, i64 8
  %13 = load i64, ptr %12, align 8, !tbaa !10
  %14 = and i64 %13, 3
  %15 = or disjoint i64 %14, %5
  store i64 %15, ptr %12, align 8, !tbaa !10
  store i64 0, ptr %3, align 8, !tbaa !13
  %16 = load i64, ptr %4, align 8, !tbaa !10
  %17 = and i64 %16, 1
  store i64 %17, ptr %4, align 8, !tbaa !10
  %18 = getelementptr inbounds nuw i8, ptr %0, i64 64
  store i8 0, ptr %18, align 8, !tbaa !14
  %19 = getelementptr inbounds nuw i8, ptr %0, i64 16
  %20 = load ptr, ptr %19, align 8, !tbaa !21
  %.not = icmp eq ptr %20, null
  br i1 %.not, label %22, label %21

21:                                               ; preds = %1
  tail call void @PyMem_Free(ptr noundef nonnull %20) #6
  store ptr null, ptr %19, align 8, !tbaa !21
  br label %22

22:                                               ; preds = %21, %1
  %23 = getelementptr inbounds nuw i8, ptr %0, i64 56
  %24 = load ptr, ptr %23, align 8, !tbaa !22
  tail call void @PyUnicodeWriter_Discard(ptr noundef %24) #6
  %25 = tail call i32 @stringio_clear(ptr noundef nonnull %0)
  %26 = getelementptr inbounds nuw i8, ptr %0, i64 104
  %27 = load ptr, ptr %26, align 8, !tbaa !23
  %.not13 = icmp eq ptr %27, null
  br i1 %.not13, label %29, label %28

28:                                               ; preds = %22
  tail call void @PyObject_ClearWeakRefs(ptr noundef nonnull %0) #6
  br label %29

29:                                               ; preds = %28, %22
  %30 = getelementptr inbounds nuw i8, ptr %.val, i64 320
  %31 = load ptr, ptr %30, align 8, !tbaa !24
  tail call void %31(ptr noundef nonnull %0) #6
  %32 = load i32, ptr %.val, align 8, !tbaa !32
  %.not.i = icmp sgt i32 %32, -1
  br i1 %.not.i, label %33, label %Py_DECREF.exit

33:                                               ; preds = %29
  %34 = add nsw i32 %32, -1
  store i32 %34, ptr %.val, align 8, !tbaa !32
  %35 = icmp eq i32 %34, 0
  br i1 %35, label %36, label %Py_DECREF.exit

36:                                               ; preds = %33
  tail call void @_Py_Dealloc(ptr noundef nonnull %.val) #6
  br label %Py_DECREF.exit

Py_DECREF.exit:                                   ; preds = %29, %33, %36
  ret void
}